target datalayout = "e-m:e-p270:32:32-p271:32:32-p272:64:64-i64:64-i128:128-f80:128-n8:16:32:64-S128"
target triple = "x86_64-pc-linux-gnu"

%struct.Lms_Man_t_ = type { i32, i32, i32, i32, i32, ptr, ptr, ptr, ptr, ptr, ptr, ptr, ptr, ptr, ptr, ptr, ptr, [1024 x i64], [1024 x i64], i32, i32, i32, i32, i32, i32, i32, i32, i32, i32, i64, i64, i64, i64, i64, i64, i64 }

@s_pMan3 = internal global ptr null, align 8

; Function Attrs: nounwind uwtable
define i32 @If_CutDelayRecCost3(ptr noundef %0, ptr noundef %1, ptr noundef %2) #0 {
  %4 = alloca ptr, align 8
  %5 = alloca ptr, align 8
  %6 = alloca ptr, align 8
  %7 = alloca ptr, align 8
  %8 = alloca [16 x i8], align 16
  %9 = alloca i32, align 4
  store ptr %0, ptr %4, align 8
  store ptr %1, ptr %5, align 8
  store ptr %2, ptr %6, align 8
  %10 = load ptr, ptr @s_pMan3, align 8
  store ptr %10, ptr %7, align 8
  store i32 0, ptr %9, align 4
  %11 = load ptr, ptr %7, align 8
  %12 = getelementptr inbounds %struct.Lms_Man_t_, ptr %11, i32 0, i32 8
  %13 = load ptr, ptr %12, align 8
  %14 = icmp eq ptr %13, null
  br i1 %14, label %15, label %17

15:                                               ; preds = %3
  %16 = load ptr, ptr %7, align 8
  call void @Lms_ManPrepare(ptr noundef %16)
  br label %17

17:                                               ; preds = %15, %3
  %18 = load ptr, ptr %4, align 8
  %19 = load ptr, ptr %5, align 8
  %20 = getelementptr inbounds [16 x i8], ptr %8, i64 0, i64 0
  %21 = call i32 @If_CutFindBestStruct(ptr noundef %18, ptr noundef %19, ptr noundef %20, ptr noundef %9, ptr noundef null)
  ret i32 %21
}