; Function Attrs: nounwind uwtable
define i32 @If_CutDelayRecCost3(ptr noundef readonly captures(none) %0, ptr noundef captures(none) %1, ptr noundef readnone captures(none) %2) local_unnamed_addr #0 {
  %4 = alloca [16 x i8], align 16
  %5 = alloca i32, align 4
  %6 = load ptr, ptr @s_pMan3, align 8
  %7 = getelementptr inbounds nuw i8, ptr %6, i64 48
  %8 = load ptr, ptr %7, align 8
  %9 = icmp eq ptr %8, null
  br i1 %9, label %10, label %11

10:                                               ; preds = %3
  tail call void @Lms_ManPrepare(ptr noundef nonnull %6)
  br label %11

11:                                               ; preds = %10, %3
  %12 = call fastcc i32 @If_CutFindBestStruct(ptr noundef %0, ptr noundef %1, ptr noundef %4, ptr noundef %5, ptr noundef null)
  ret i32 %12
}